; Function Attrs: nounwind uwtable
define internal range(i32 1, 4) i32 @io_tmpfile(ptr noundef %0) #0 {
  %2 = tail call ptr @lua_newuserdata(ptr noundef %0, i64 noundef 8) #9
  store ptr null, ptr %2, align 8, !tbaa !4
  tail call void @lua_getfield(ptr noundef %0, i32 noundef -10000, ptr noundef nonnull @.str.5) #9
  %3 = tail call i32 @lua_setmetatable(ptr noundef %0, i32 noundef -2) #9
  %4 = tail call noalias ptr @tmpfile()
  store ptr %4, ptr %2, align 8, !tbaa !4
  %5 = icmp eq ptr %4, null
  br i1 %5, label %6, label %12

6:                                                ; preds = %1
  %7 = tail call ptr @__errno_location() #10
  %8 = load i32, ptr %7, align 4, !tbaa !9
  tail call void @lua_pushnil(ptr noundef %0) #9
  %9 = tail call ptr @strerror(i32 noundef %8) #9
  %10 = tail call ptr (ptr, ptr, ...) @lua_pushfstring(ptr noundef %0, ptr noundef nonnull @.str.19, ptr noundef %9) #9
  %11 = sext i32 %8 to i64
  tail call void @lua_pushinteger(ptr noundef %0, i64 noundef %11) #9
  br label %12

12:                                               ; preds = %1, %6
  %13 = phi i32 [ 3, %6 ], [ 1, %1 ]
  ret i32 %13
}